; Function Attrs: nounwind uwtable
define internal fastcc void @FreeJoylistItem(ptr noundef nonnull %0) unnamed_addr #0 {
  %2 = getelementptr inbounds nuw i8, ptr %0, i64 80
  %3 = load ptr, ptr %2, align 8
  tail call void @SDL_free_REAL(ptr noundef %3) #18
  %4 = getelementptr inbounds nuw i8, ptr %0, i64 8
  %5 = load ptr, ptr %4, align 8
  tail call void @SDL_free_REAL(ptr noundef %5) #18
  %6 = getelementptr inbounds nuw i8, ptr %0, i64 16
  %7 = load ptr, ptr %6, align 8
  tail call void @SDL_free_REAL(ptr noundef %7) #18
  tail call void @SDL_free_REAL(ptr noundef nonnull %0) #18
  ret void
}